SF:C:\Users\knoxy\Documents\Github\CS320 Project\a-better-notion\client\src\main.rs
FN:142,_RNCNvNtCsbSjSHqLDNN2_6client5tests16handle_key_event0B5_
FN:115,_RNCNvNtCsbSjSHqLDNN2_6client5tests6render0B5_
FN:23,_RNvXs0_CsbSjSHqLDNN2_6clientNtB5_3AppNtNtCsiBaDUsXeAwp_4core3fmt5Debug3fmtB5_
FN:16,_RNvCsbSjSHqLDNN2_6client4main
FN:39,_RNvMCsbSjSHqLDNN2_6clientNtB2_3App12render_frame
FN:33,_RNCNvMCsbSjSHqLDNN2_6clientNtB4_3App3run0B4_
FN:44,_RNvMCsbSjSHqLDNN2_6clientNtB2_3App13handle_events
FN:31,_RNvMCsbSjSHqLDNN2_6clientNtB2_3App3run
FN:116,_RNvNtCsbSjSHqLDNN2_6client5testss_6render
FN:143,_RNvNtCsbSjSHqLDNN2_6client5testss_16handle_key_event
FN:65,_RNvMCsbSjSHqLDNN2_6clientNtB2_3App4exit
FN:69,_RNvMCsbSjSHqLDNN2_6clientNtB2_3App17decrement_counter
FN:73,_RNvMCsbSjSHqLDNN2_6clientNtB2_3App17increment_counter
FN:79,_RNvXs_CsbSjSHqLDNN2_6clientRNtB4_3AppNtNtCskXnTD5YaQu2_7ratatui7widgets6Widget6render
FN:56,_RNvMCsbSjSHqLDNN2_6clientNtB2_3App16handle_key_event
FN:23,_RNvXs1_CsbSjSHqLDNN2_6clientNtB5_3AppNtNtCsiBaDUsXeAwp_4core7default7Default7defaultB5_
FNDA:1,_RNCNvNtCsbSjSHqLDNN2_6client5tests16handle_key_event0B5_
FNDA:1,_RNCNvNtCsbSjSHqLDNN2_6client5tests6render0B5_
FNDA:0,_RNvXs0_CsbSjSHqLDNN2_6clientNtB5_3AppNtNtCsiBaDUsXeAwp_4core3fmt5Debug3fmtB5_
FNDA:0,_RNvCsbSjSHqLDNN2_6client4main
FNDA:0,_RNvMCsbSjSHqLDNN2_6clientNtB2_3App12render_frame
FNDA:0,_RNCNvMCsbSjSHqLDNN2_6clientNtB4_3App3run0B4_
FNDA:0,_RNvMCsbSjSHqLDNN2_6clientNtB2_3App13handle_events
FNDA:0,_RNvMCsbSjSHqLDNN2_6clientNtB2_3App3run
FNDA:1,_RNvNtCsbSjSHqLDNN2_6client5testss_6render
FNDA:1,_RNvNtCsbSjSHqLDNN2_6client5testss_16handle_key_event
FNDA:1,_RNvMCsbSjSHqLDNN2_6clientNtB2_3App4exit
FNDA:1,_RNvMCsbSjSHqLDNN2_6clientNtB2_3App17decrement_counter
FNDA:1,_RNvMCsbSjSHqLDNN2_6clientNtB2_3App17increment_counter
FNDA:1,_RNvXs_CsbSjSHqLDNN2_6clientRNtB4_3AppNtNtCskXnTD5YaQu2_7ratatui7widgets6Widget6render
FNDA:3,_RNvMCsbSjSHqLDNN2_6clientNtB2_3App16handle_key_event
FNDA:3,_RNvXs1_CsbSjSHqLDNN2_6clientNtB5_3AppNtNtCsiBaDUsXeAwp_4core7default7Default7defaultB5_
FNF:16
FNH:10
DA:16,0
DA:17,0
DA:18,0
DA:19,0
DA:20,0
DA:21,0
DA:23,3
DA:31,0
DA:32,0
DA:33,0
DA:34,0
DA:36,0
DA:37,0
DA:39,0
DA:40,0
DA:41,0
DA:44,0
DA:45,0
DA:48,0
DA:49,0
DA:51,0
DA:53,0
DA:54,0
DA:56,3
DA:57,3
DA:58,1
DA:59,1
DA:60,1
DA:61,0
DA:63,3
DA:65,1
DA:66,1
DA:67,1
DA:69,1
DA:70,1
DA:71,1
DA:73,1
DA:74,1
DA:75,1
DA:79,1
DA:80,1
DA:81,1
DA:82,1
DA:83,1
DA:84,1
DA:85,1
DA:86,1
DA:87,1
DA:88,1
DA:89,1
DA:90,1
DA:91,1
DA:92,1
DA:93,1
DA:94,1
DA:95,1
DA:96,1
DA:97,1
DA:98,1
DA:99,1
DA:100,1
DA:101,1
DA:102,1
DA:103,1
DA:104,1
DA:105,1
DA:106,1
DA:107,1
DA:108,1
DA:115,1
DA:116,1
DA:117,1
DA:118,1
DA:119,1
DA:120,1
DA:121,1
DA:122,1
DA:123,1
DA:124,1
DA:125,1
DA:126,1
DA:127,1
DA:128,1
DA:129,1
DA:130,1
DA:131,1
DA:132,1
DA:133,1
DA:134,1
DA:135,1
DA:136,1
DA:137,1
DA:138,1
DA:139,1
DA:140,1
DA:142,1
DA:143,1
DA:144,1
DA:145,1
DA:146,1
DA:148,1
DA:149,1
DA:151,1
DA:152,1
DA:153,1
DA:155,1
DA:156,1
BRF:0
BRH:0
LF:109
LH:84
end_of_record
SF:C:\Users\knoxy\Documents\Github\CS320 Project\a-better-notion\client\src\mid.rs
FN:12,_RNvXNvXNvNtCsbSjSHqLDNN2_6client3mids1_1__NtB7_8TaskPropNtNtCsdFvYxIsSax5_5serde2de11Deserialize11deserializeNtB2_14___FieldVisitorNtBU_7Visitor9expecting
FN:4,_RINvXNvXNvNtCsbSjSHqLDNN2_6client3mids_1__NtB8_15TaskPropVariantNtNtCsdFvYxIsSax5_5serde2de11Deserialize11deserializeNtB3_14___FieldVisitorNtB12_7Visitor9visit_strpEBa_
FN:12,_RINvXs0_NvXNvNtCsbSjSHqLDNN2_6client3mids1_1__NtBb_8TaskPropNtNtCsdFvYxIsSax5_5serde2de11Deserialize11deserializeNtB6_9___VisitorNtBY_7Visitor9visit_seqpEBd_
FN:12,_RINvXs_NvXNvNtCsbSjSHqLDNN2_6client3mids1_1__NtBa_8TaskPropNtNtCsdFvYxIsSax5_5serde2de11Deserialize11deserializeNtB5_7___FieldBV_11deserializepEBc_
FN:4,_RINvXNvNtCsbSjSHqLDNN2_6client3mids_1__NtB5_15TaskPropVariantNtNtCsdFvYxIsSax5_5serde2de11Deserialize11deserializepEB7_
FN:12,_RINvXs0_NvXNvNtCsbSjSHqLDNN2_6client3mids1_1__NtBb_8TaskPropNtNtCsdFvYxIsSax5_5serde2de11Deserialize11deserializeNtB6_9___VisitorNtBY_7Visitor9visit_mappEBd_
FN:39,_RINvXNvNtCsbSjSHqLDNN2_6client3mids3_1__NtB5_17CreateTaskRequestNtNtCsdFvYxIsSax5_5serde2de11Deserialize11deserializepEB7_
FN:39,_RNvXs0_NvXNvNtCsbSjSHqLDNN2_6client3mids3_1__NtBa_17CreateTaskRequestNtNtCsdFvYxIsSax5_5serde2de11Deserialize11deserializeNtB5_9___VisitorNtB17_7Visitor9expecting
FN:4,_RINvXNvNtCsbSjSHqLDNN2_6client3mid1__NtB5_15TaskPropVariantNtNtCsdFvYxIsSax5_5serde3ser9Serialize9serializepEB7_
FN:4,_RINvXNvXNvNtCsbSjSHqLDNN2_6client3mids_1__NtB8_15TaskPropVariantNtNtCsdFvYxIsSax5_5serde2de11Deserialize11deserializeNtB3_14___FieldVisitorNtB12_7Visitor9visit_u64pEBa_
FN:39,_RINvXNvNtCsbSjSHqLDNN2_6client3mids2_1__NtB5_17CreateTaskRequestNtNtCsdFvYxIsSax5_5serde3ser9Serialize9serializepEB7_
FN:39,_RINvXNvXNvNtCsbSjSHqLDNN2_6client3mids3_1__NtB8_17CreateTaskRequestNtNtCsdFvYxIsSax5_5serde2de11Deserialize11deserializeNtB3_14___FieldVisitorNtB15_7Visitor9visit_strpEBa_
FN:12,_RINvXNvXNvNtCsbSjSHqLDNN2_6client3mids1_1__NtB8_8TaskPropNtNtCsdFvYxIsSax5_5serde2de11Deserialize11deserializeNtB3_14___FieldVisitorNtBV_7Visitor11visit_bytespEBa_
FN:12,_RINvXNvXNvNtCsbSjSHqLDNN2_6client3mids1_1__NtB8_8TaskPropNtNtCsdFvYxIsSax5_5serde2de11Deserialize11deserializeNtB3_14___FieldVisitorNtBV_7Visitor9visit_u64pEBa_
FN:12,_RINvXNvNtCsbSjSHqLDNN2_6client3mids0_1__NtB5_8TaskPropNtNtCsdFvYxIsSax5_5serde3ser9Serialize9serializepEB7_
FN:12,_RINvXNvNtCsbSjSHqLDNN2_6client3mids1_1__NtB5_8TaskPropNtNtCsdFvYxIsSax5_5serde2de11Deserialize11deserializepEB7_
FN:39,_RINvXs0_NvXNvNtCsbSjSHqLDNN2_6client3mids3_1__NtBb_17CreateTaskRequestNtNtCsdFvYxIsSax5_5serde2de11Deserialize11deserializeNtB6_9___VisitorNtB18_7Visitor9visit_seqpEBd_
FN:39,_RINvXNvXNvNtCsbSjSHqLDNN2_6client3mids3_1__NtB8_17CreateTaskRequestNtNtCsdFvYxIsSax5_5serde2de11Deserialize11deserializeNtB3_14___FieldVisitorNtB15_7Visitor9visit_u64pEBa_
FN:39,_RINvXs_NvXNvNtCsbSjSHqLDNN2_6client3mids3_1__NtBa_17CreateTaskRequestNtNtCsdFvYxIsSax5_5serde2de11Deserialize11deserializeNtB5_7___FieldB15_11deserializepEBc_
FN:39,_RNvXNvXNvNtCsbSjSHqLDNN2_6client3mids3_1__NtB7_17CreateTaskRequestNtNtCsdFvYxIsSax5_5serde2de11Deserialize11deserializeNtB2_14___FieldVisitorNtB14_7Visitor9expecting
FN:39,_RINvXs0_NvXNvNtCsbSjSHqLDNN2_6client3mids3_1__NtBb_17CreateTaskRequestNtNtCsdFvYxIsSax5_5serde2de11Deserialize11deserializeNtB6_9___VisitorNtB18_7Visitor9visit_mappEBd_
FN:4,_RNvXNvXNvNtCsbSjSHqLDNN2_6client3mids_1__NtB7_15TaskPropVariantNtNtCsdFvYxIsSax5_5serde2de11Deserialize11deserializeNtB2_14___FieldVisitorNtB11_7Visitor9expecting
FN:4,_RINvXs_NvXNvNtCsbSjSHqLDNN2_6client3mids_1__NtBa_15TaskPropVariantNtNtCsdFvYxIsSax5_5serde2de11Deserialize11deserializeNtB5_7___FieldB12_11deserializepEBc_
FN:4,_RINvXNvXNvNtCsbSjSHqLDNN2_6client3mids_1__NtB8_15TaskPropVariantNtNtCsdFvYxIsSax5_5serde2de11Deserialize11deserializeNtB3_14___FieldVisitorNtB12_7Visitor11visit_bytespEBa_
FN:12,_RNvXs0_NvXNvNtCsbSjSHqLDNN2_6client3mids1_1__NtBa_8TaskPropNtNtCsdFvYxIsSax5_5serde2de11Deserialize11deserializeNtB5_9___VisitorNtBX_7Visitor9expecting
FN:39,_RINvXNvXNvNtCsbSjSHqLDNN2_6client3mids3_1__NtB8_17CreateTaskRequestNtNtCsdFvYxIsSax5_5serde2de11Deserialize11deserializeNtB3_14___FieldVisitorNtB15_7Visitor11visit_bytespEBa_
FN:12,_RINvXNvXNvNtCsbSjSHqLDNN2_6client3mids1_1__NtB8_8TaskPropNtNtCsdFvYxIsSax5_5serde2de11Deserialize11deserializeNtB3_14___FieldVisitorNtBV_7Visitor9visit_strpEBa_
FNDA:0,_RNvXNvXNvNtCsbSjSHqLDNN2_6client3mids1_1__NtB7_8TaskPropNtNtCsdFvYxIsSax5_5serde2de11Deserialize11deserializeNtB2_14___FieldVisitorNtBU_7Visitor9expecting
FNDA:0,_RINvXNvXNvNtCsbSjSHqLDNN2_6client3mids_1__NtB8_15TaskPropVariantNtNtCsdFvYxIsSax5_5serde2de11Deserialize11deserializeNtB3_14___FieldVisitorNtB12_7Visitor9visit_strpEBa_
FNDA:0,_RINvXs0_NvXNvNtCsbSjSHqLDNN2_6client3mids1_1__NtBb_8TaskPropNtNtCsdFvYxIsSax5_5serde2de11Deserialize11deserializeNtB6_9___VisitorNtBY_7Visitor9visit_seqpEBd_
FNDA:0,_RINvXs_NvXNvNtCsbSjSHqLDNN2_6client3mids1_1__NtBa_8TaskPropNtNtCsdFvYxIsSax5_5serde2de11Deserialize11deserializeNtB5_7___FieldBV_11deserializepEBc_
FNDA:0,_RINvXNvNtCsbSjSHqLDNN2_6client3mids_1__NtB5_15TaskPropVariantNtNtCsdFvYxIsSax5_5serde2de11Deserialize11deserializepEB7_
FNDA:0,_RINvXs0_NvXNvNtCsbSjSHqLDNN2_6client3mids1_1__NtBb_8TaskPropNtNtCsdFvYxIsSax5_5serde2de11Deserialize11deserializeNtB6_9___VisitorNtBY_7Visitor9visit_mappEBd_
FNDA:0,_RINvXNvNtCsbSjSHqLDNN2_6client3mids3_1__NtB5_17CreateTaskRequestNtNtCsdFvYxIsSax5_5serde2de11Deserialize11deserializepEB7_
FNDA:0,_RNvXs0_NvXNvNtCsbSjSHqLDNN2_6client3mids3_1__NtBa_17CreateTaskRequestNtNtCsdFvYxIsSax5_5serde2de11Deserialize11deserializeNtB5_9___VisitorNtB17_7Visitor9expecting
FNDA:0,_RINvXNvNtCsbSjSHqLDNN2_6client3mid1__NtB5_15TaskPropVariantNtNtCsdFvYxIsSax5_5serde3ser9Serialize9serializepEB7_
FNDA:0,_RINvXNvXNvNtCsbSjSHqLDNN2_6client3mids_1__NtB8_15TaskPropVariantNtNtCsdFvYxIsSax5_5serde2de11Deserialize11deserializeNtB3_14___FieldVisitorNtB12_7Visitor9visit_u64pEBa_
FNDA:0,_RINvXNvNtCsbSjSHqLDNN2_6client3mids2_1__NtB5_17CreateTaskRequestNtNtCsdFvYxIsSax5_5serde3ser9Serialize9serializepEB7_
FNDA:0,_RINvXNvXNvNtCsbSjSHqLDNN2_6client3mids3_1__NtB8_17CreateTaskRequestNtNtCsdFvYxIsSax5_5serde2de11Deserialize11deserializeNtB3_14___FieldVisitorNtB15_7Visitor9visit_strpEBa_
FNDA:0,_RINvXNvXNvNtCsbSjSHqLDNN2_6client3mids1_1__NtB8_8TaskPropNtNtCsdFvYxIsSax5_5serde2de11Deserialize11deserializeNtB3_14___FieldVisitorNtBV_7Visitor11visit_bytespEBa_
FNDA:0,_RINvXNvXNvNtCsbSjSHqLDNN2_6client3mids1_1__NtB8_8TaskPropNtNtCsdFvYxIsSax5_5serde2de11Deserialize11deserializeNtB3_14___FieldVisitorNtBV_7Visitor9visit_u64pEBa_
FNDA:0,_RINvXNvNtCsbSjSHqLDNN2_6client3mids0_1__NtB5_8TaskPropNtNtCsdFvYxIsSax5_5serde3ser9Serialize9serializepEB7_
FNDA:0,_RINvXNvNtCsbSjSHqLDNN2_6client3mids1_1__NtB5_8TaskPropNtNtCsdFvYxIsSax5_5serde2de11Deserialize11deserializepEB7_
FNDA:0,_RINvXs0_NvXNvNtCsbSjSHqLDNN2_6client3mids3_1__NtBb_17CreateTaskRequestNtNtCsdFvYxIsSax5_5serde2de11Deserialize11deserializeNtB6_9___VisitorNtB18_7Visitor9visit_seqpEBd_
FNDA:0,_RINvXNvXNvNtCsbSjSHqLDNN2_6client3mids3_1__NtB8_17CreateTaskRequestNtNtCsdFvYxIsSax5_5serde2de11Deserialize11deserializeNtB3_14___FieldVisitorNtB15_7Visitor9visit_u64pEBa_
FNDA:0,_RINvXs_NvXNvNtCsbSjSHqLDNN2_6client3mids3_1__NtBa_17CreateTaskRequestNtNtCsdFvYxIsSax5_5serde2de11Deserialize11deserializeNtB5_7___FieldB15_11deserializepEBc_
FNDA:0,_RNvXNvXNvNtCsbSjSHqLDNN2_6client3mids3_1__NtB7_17CreateTaskRequestNtNtCsdFvYxIsSax5_5serde2de11Deserialize11deserializeNtB2_14___FieldVisitorNtB14_7Visitor9expecting
FNDA:0,_RINvXs0_NvXNvNtCsbSjSHqLDNN2_6client3mids3_1__NtBb_17CreateTaskRequestNtNtCsdFvYxIsSax5_5serde2de11Deserialize11deserializeNtB6_9___VisitorNtB18_7Visitor9visit_mappEBd_
FNDA:0,_RNvXNvXNvNtCsbSjSHqLDNN2_6client3mids_1__NtB7_15TaskPropVariantNtNtCsdFvYxIsSax5_5serde2de11Deserialize11deserializeNtB2_14___FieldVisitorNtB11_7Visitor9expecting
FNDA:0,_RINvXs_NvXNvNtCsbSjSHqLDNN2_6client3mids_1__NtBa_15TaskPropVariantNtNtCsdFvYxIsSax5_5serde2de11Deserialize11deserializeNtB5_7___FieldB12_11deserializepEBc_
FNDA:0,_RINvXNvXNvNtCsbSjSHqLDNN2_6client3mids_1__NtB8_15TaskPropVariantNtNtCsdFvYxIsSax5_5serde2de11Deserialize11deserializeNtB3_14___FieldVisitorNtB12_7Visitor11visit_bytespEBa_
FNDA:0,_RNvXs0_NvXNvNtCsbSjSHqLDNN2_6client3mids1_1__NtBa_8TaskPropNtNtCsdFvYxIsSax5_5serde2de11Deserialize11deserializeNtB5_9___VisitorNtBX_7Visitor9expecting
FNDA:0,_RINvXNvXNvNtCsbSjSHqLDNN2_6client3mids3_1__NtB8_17CreateTaskRequestNtNtCsdFvYxIsSax5_5serde2de11Deserialize11deserializeNtB3_14___FieldVisitorNtB15_7Visitor11visit_bytespEBa_
FNDA:0,_RINvXNvXNvNtCsbSjSHqLDNN2_6client3mids1_1__NtB8_8TaskPropNtNtCsdFvYxIsSax5_5serde2de11Deserialize11deserializeNtB3_14___FieldVisitorNtBV_7Visitor9visit_strpEBa_
FNF:6
FNH:0
DA:4,0
DA:12,0
DA:39,0
BRF:0
BRH:0
LF:6
LH:0
end_of_record
SF:C:\Users\knoxy\Documents\Github\CS320 Project\a-better-notion\client\src\term.rs
FN:18,_RNCNvNtCsbSjSHqLDNN2_6client4term7restores_0B5_
FN:11,_RNCNvNtCsbSjSHqLDNN2_6client4term4inits0_0B5_
FN:10,_RNvNtCsbSjSHqLDNN2_6client4term4init
FN:11,_RNCNvNtCsbSjSHqLDNN2_6client4term4init0B5_
FN:17,_RNvNtCsbSjSHqLDNN2_6client4term7restore
FN:18,_RNCNvNtCsbSjSHqLDNN2_6client4term7restores0_0B5_
FN:11,_RNCNvNtCsbSjSHqLDNN2_6client4term4inits_0B5_
FN:18,_RNCNvNtCsbSjSHqLDNN2_6client4term7restore0B5_
FNDA:0,_RNCNvNtCsbSjSHqLDNN2_6client4term7restores_0B5_
FNDA:0,_RNCNvNtCsbSjSHqLDNN2_6client4term4inits0_0B5_
FNDA:0,_RNvNtCsbSjSHqLDNN2_6client4term4init
FNDA:0,_RNCNvNtCsbSjSHqLDNN2_6client4term4init0B5_
FNDA:0,_RNvNtCsbSjSHqLDNN2_6client4term7restore
FNDA:0,_RNCNvNtCsbSjSHqLDNN2_6client4term7restores0_0B5_
FNDA:0,_RNCNvNtCsbSjSHqLDNN2_6client4term4inits_0B5_
FNDA:0,_RNCNvNtCsbSjSHqLDNN2_6client4term7restore0B5_
FNF:4
FNH:0
DA:10,0
DA:11,0
DA:12,0
DA:13,0
DA:14,0
DA:17,0
DA:18,0
DA:19,0
DA:20,0
DA:21,0
BRF:0
BRH:0
LF:12
LH:0
end_of_record